target datalayout = "e-m:e-p270:32:32-p271:32:32-p272:64:64-i64:64-i128:128-f80:128-n8:16:32:64-S128"
target triple = "x86_64-pc-linux-gnu"

%"class.zmq::xpub_t" = type { %"class.zmq::socket_base_t.base", %"class.zmq::generic_mtrie_t", %"class.zmq::generic_mtrie_t", %"class.zmq::dist_t", i8, i8, i8, i8, i8, i8, i8, i8, i8, ptr, %"class.std::deque", %"class.zmq::msg_t", %"class.std::deque.53", %"class.std::deque.59", %"class.std::deque.65" }
%"class.zmq::socket_base_t.base" = type <{ %"class.zmq::own_t.base", [4 x i8], %"class.zmq::array_item_t.base", [4 x i8], %"struct.zmq::i_poll_events", %"struct.zmq::i_pipe_events", %"class.zmq::mutex_t", %"class.std::multimap", %"class.zmq::socket_base_t::inprocs_t", i32, i8, i8, [2 x i8], ptr, %"class.zmq::array_t", ptr, ptr, i64, i32, i8, [3 x i8], %"class.zmq::clock_t", ptr, i64, %"class.std::__cxx11::basic_string", i8, [7 x i8], ptr, %"class.zmq::mutex_t", i8 }>
%"class.zmq::own_t.base" = type <{ %"class.zmq::object_t.base", [4 x i8], %"struct.zmq::options_t", i8, [7 x i8], %"class.zmq::atomic_counter_t", i64, ptr, %"class.std::set.24", i32 }>
%"class.zmq::object_t.base" = type <{ ptr, ptr, i32 }>
%"struct.zmq::options_t" = type { i32, i32, i64, i8, [256 x i8], i32, i32, i32, i32, i32, i32, i32, i32, i8, %"struct.zmq::atomic_value_t", i32, i32, i32, i32, i32, i32, i64, i32, i32, i8, i32, i8, i8, i8, i8, i8, %"class.std::__cxx11::basic_string", %"class.std::__cxx11::basic_string", %"class.std::__cxx11::basic_string", i32, i32, i32, i32, %"class.std::vector", %"class.std::set", %"class.std::set", %"class.std::set.6", i32, i32, %"class.std::__cxx11::basic_string", %"class.std::__cxx11::basic_string", %"class.std::__cxx11::basic_string", [32 x i8], [32 x i8], [32 x i8], %"class.std::__cxx11::basic_string", %"class.std::__cxx11::basic_string", i32, i32, i8, i32, i8, i32, i8, i16, i32, i32, i32, %"class.std::__cxx11::basic_string", i8, i8, i8, i32, i32, i8, i32, %"class.std::map", i32, %"class.std::__cxx11::basic_string", %"class.std::__cxx11::basic_string", %"class.std::__cxx11::basic_string", %"class.std::__cxx11::basic_string", i8, %"class.std::vector.17", i8, %"class.std::vector.17", i8, %"class.std::vector.17", i8, i32, i8, i32, i32, i32, i32, i32, i8, i32 }
%"struct.zmq::atomic_value_t" = type { %"struct.std::atomic" }
%"struct.std::atomic" = type { %"struct.std::__atomic_base" }
%"struct.std::__atomic_base" = type { i32 }
%"class.std::vector" = type { %"struct.std::_Vector_base" }
%"struct.std::_Vector_base" = type { %"struct.std::_Vector_base<zmq::tcp_address_mask_t, std::allocator<zmq::tcp_address_mask_t>>::_Vector_impl" }
%"struct.std::_Vector_base<zmq::tcp_address_mask_t, std::allocator<zmq::tcp_address_mask_t>>::_Vector_impl" = type { %"struct.std::_Vector_base<zmq::tcp_address_mask_t, std::allocator<zmq::tcp_address_mask_t>>::_Vector_impl_data" }
%"struct.std::_Vector_base<zmq::tcp_address_mask_t, std::allocator<zmq::tcp_address_mask_t>>::_Vector_impl_data" = type { ptr, ptr, ptr }
%"class.std::set" = type { %"class.std::_Rb_tree" }
%"class.std::_Rb_tree" = type { %"struct.std::_Rb_tree<unsigned int, unsigned int, std::_Identity<unsigned int>, std::less<unsigned int>>::_Rb_tree_impl" }
%"struct.std::_Rb_tree<unsigned int, unsigned int, std::_Identity<unsigned int>, std::less<unsigned int>>::_Rb_tree_impl" = type { [8 x i8], %"struct.std::_Rb_tree_header" }
%"struct.std::_Rb_tree_header" = type { %"struct.std::_Rb_tree_node_base", i64 }
%"struct.std::_Rb_tree_node_base" = type { i32, ptr, ptr, ptr }
%"class.std::set.6" = type { %"class.std::_Rb_tree.7" }
%"class.std::_Rb_tree.7" = type { %"struct.std::_Rb_tree<int, int, std::_Identity<int>, std::less<int>>::_Rb_tree_impl" }
%"struct.std::_Rb_tree<int, int, std::_Identity<int>, std::less<int>>::_Rb_tree_impl" = type { [8 x i8], %"struct.std::_Rb_tree_header" }
%"class.std::map" = type { %"class.std::_Rb_tree.12" }
%"class.std::_Rb_tree.12" = type { %"struct.std::_Rb_tree<std::__cxx11::basic_string<char>, std::pair<const std::__cxx11::basic_string<char>, std::__cxx11::basic_string<char>>, std::_Select1st<std::pair<const std::__cxx11::basic_string<char>, std::__cxx11::basic_string<char>>>, std::less<std::__cxx11::basic_string<char>>>::_Rb_tree_impl" }
%"struct.std::_Rb_tree<std::__cxx11::basic_string<char>, std::pair<const std::__cxx11::basic_string<char>, std::__cxx11::basic_string<char>>, std::_Select1st<std::pair<const std::__cxx11::basic_string<char>, std::__cxx11::basic_string<char>>>, std::less<std::__cxx11::basic_string<char>>>::_Rb_tree_impl" = type { [8 x i8], %"struct.std::_Rb_tree_header" }
%"class.std::vector.17" = type { %"struct.std::_Vector_base.18" }
%"struct.std::_Vector_base.18" = type { %"struct.std::_Vector_base<unsigned char, std::allocator<unsigned char>>::_Vector_impl" }
%"struct.std::_Vector_base<unsigned char, std::allocator<unsigned char>>::_Vector_impl" = type { %"struct.std::_Vector_base<unsigned char, std::allocator<unsigned char>>::_Vector_impl_data" }
%"struct.std::_Vector_base<unsigned char, std::allocator<unsigned char>>::_Vector_impl_data" = type { ptr, ptr, ptr }
%"class.zmq::atomic_counter_t" = type { %"struct.std::atomic.22", [4 x i8] }
%"struct.std::atomic.22" = type { %"struct.std::__atomic_base.23" }
%"struct.std::__atomic_base.23" = type { i32 }
%"class.std::set.24" = type { %"class.std::_Rb_tree.25" }
%"class.std::_Rb_tree.25" = type { %"struct.std::_Rb_tree<zmq::own_t *, zmq::own_t *, std::_Identity<zmq::own_t *>, std::less<zmq::own_t *>>::_Rb_tree_impl" }
%"struct.std::_Rb_tree<zmq::own_t *, zmq::own_t *, std::_Identity<zmq::own_t *>, std::less<zmq::own_t *>>::_Rb_tree_impl" = type { [8 x i8], %"struct.std::_Rb_tree_header" }
%"class.zmq::array_item_t.base" = type <{ ptr, i32 }>
%"struct.zmq::i_poll_events" = type { ptr }
%"struct.zmq::i_pipe_events" = type { ptr }
%"class.std::multimap" = type { %"class.std::_Rb_tree.30" }
%"class.std::_Rb_tree.30" = type { %"struct.std::_Rb_tree<std::__cxx11::basic_string<char>, std::pair<const std::__cxx11::basic_string<char>, std::pair<zmq::own_t *, zmq::pipe_t *>>, std::_Select1st<std::pair<const std::__cxx11::basic_string<char>, std::pair<zmq::own_t *, zmq::pipe_t *>>>, std::less<std::__cxx11::basic_string<char>>>::_Rb_tree_impl" }
%"struct.std::_Rb_tree<std::__cxx11::basic_string<char>, std::pair<const std::__cxx11::basic_string<char>, std::pair<zmq::own_t *, zmq::pipe_t *>>, std::_Select1st<std::pair<const std::__cxx11::basic_string<char>, std::pair<zmq::own_t *, zmq::pipe_t *>>>, std::less<std::__cxx11::basic_string<char>>>::_Rb_tree_impl" = type { [8 x i8], %"struct.std::_Rb_tree_header" }
%"class.zmq::socket_base_t::inprocs_t" = type { %"class.std::multimap.34" }
%"class.std::multimap.34" = type { %"class.std::_Rb_tree.35" }
%"class.std::_Rb_tree.35" = type { %"struct.std::_Rb_tree<std::__cxx11::basic_string<char>, std::pair<const std::__cxx11::basic_string<char>, zmq::pipe_t *>, std::_Select1st<std::pair<const std::__cxx11::basic_string<char>, zmq::pipe_t *>>, std::less<std::__cxx11::basic_string<char>>>::_Rb_tree_impl" }
%"struct.std::_Rb_tree<std::__cxx11::basic_string<char>, std::pair<const std::__cxx11::basic_string<char>, zmq::pipe_t *>, std::_Select1st<std::pair<const std::__cxx11::basic_string<char>, zmq::pipe_t *>>, std::less<std::__cxx11::basic_string<char>>>::_Rb_tree_impl" = type { [8 x i8], %"struct.std::_Rb_tree_header" }
%"class.zmq::array_t" = type { %"class.std::vector.39" }
%"class.std::vector.39" = type { %"struct.std::_Vector_base.40" }
%"struct.std::_Vector_base.40" = type { %"struct.std::_Vector_base<zmq::pipe_t *, std::allocator<zmq::pipe_t *>>::_Vector_impl" }
%"struct.std::_Vector_base<zmq::pipe_t *, std::allocator<zmq::pipe_t *>>::_Vector_impl" = type { %"struct.std::_Vector_base<zmq::pipe_t *, std::allocator<zmq::pipe_t *>>::_Vector_impl_data" }
%"struct.std::_Vector_base<zmq::pipe_t *, std::allocator<zmq::pipe_t *>>::_Vector_impl_data" = type { ptr, ptr, ptr }
%"class.zmq::clock_t" = type { i64, i64 }
%"class.std::__cxx11::basic_string" = type { %"struct.std::__cxx11::basic_string<char>::_Alloc_hider", i64, %union.anon }
%"struct.std::__cxx11::basic_string<char>::_Alloc_hider" = type { ptr }
%union.anon = type { i64, [8 x i8] }
%"class.zmq::mutex_t" = type <{ %union.pthread_mutex_t, %union.pthread_mutexattr_t, [4 x i8] }>
%union.pthread_mutex_t = type { %struct.__pthread_mutex_s }
%struct.__pthread_mutex_s = type { i32, i32, i32, i32, i32, i16, i16, %struct.__pthread_internal_list }
%struct.__pthread_internal_list = type { ptr, ptr }
%union.pthread_mutexattr_t = type { i32 }
%"class.zmq::generic_mtrie_t" = type { ptr, %"class.zmq::atomic_counter_t", i8, i16, i16, %"union.zmq::generic_mtrie_t<zmq::pipe_t>::_next_t" }
%"union.zmq::generic_mtrie_t<zmq::pipe_t>::_next_t" = type { ptr }
%"class.zmq::dist_t" = type <{ %"class.zmq::array_t.44", i64, i64, i64, i8, [7 x i8] }>
%"class.zmq::array_t.44" = type { %"class.std::vector.39" }
%"class.std::deque" = type { %"class.std::_Deque_base" }
%"class.std::_Deque_base" = type { %"struct.std::_Deque_base<zmq::pipe_t *, std::allocator<zmq::pipe_t *>>::_Deque_impl" }
%"struct.std::_Deque_base<zmq::pipe_t *, std::allocator<zmq::pipe_t *>>::_Deque_impl" = type { %"struct.std::_Deque_base<zmq::pipe_t *, std::allocator<zmq::pipe_t *>>::_Deque_impl_data" }
%"struct.std::_Deque_base<zmq::pipe_t *, std::allocator<zmq::pipe_t *>>::_Deque_impl_data" = type { ptr, i64, %"struct.std::_Deque_iterator", %"struct.std::_Deque_iterator" }
%"struct.std::_Deque_iterator" = type { ptr, ptr, ptr, ptr }
%"class.zmq::msg_t" = type { %union.anon.45 }
%union.anon.45 = type { %struct.anon }
%struct.anon = type { ptr, [34 x i8], i8, i8, i32, %"union.zmq::msg_t::group_t" }
%"union.zmq::msg_t::group_t" = type { %struct.anon.47 }
%struct.anon.47 = type { i8, ptr }
%"class.std::deque.53" = type { %"class.std::_Deque_base.54" }
%"class.std::_Deque_base.54" = type { %"struct.std::_Deque_base<zmq::blob_t, std::allocator<zmq::blob_t>>::_Deque_impl" }
%"struct.std::_Deque_base<zmq::blob_t, std::allocator<zmq::blob_t>>::_Deque_impl" = type { %"struct.std::_Deque_base<zmq::blob_t, std::allocator<zmq::blob_t>>::_Deque_impl_data" }
%"struct.std::_Deque_base<zmq::blob_t, std::allocator<zmq::blob_t>>::_Deque_impl_data" = type { ptr, i64, %"struct.std::_Deque_iterator.58", %"struct.std::_Deque_iterator.58" }
%"struct.std::_Deque_iterator.58" = type { ptr, ptr, ptr, ptr }
%"class.std::deque.59" = type { %"class.std::_Deque_base.60" }
%"class.std::_Deque_base.60" = type { %"struct.std::_Deque_base<zmq::metadata_t *, std::allocator<zmq::metadata_t *>>::_Deque_impl" }
%"struct.std::_Deque_base<zmq::metadata_t *, std::allocator<zmq::metadata_t *>>::_Deque_impl" = type { %"struct.std::_Deque_base<zmq::metadata_t *, std::allocator<zmq::metadata_t *>>::_Deque_impl_data" }
%"struct.std::_Deque_base<zmq::metadata_t *, std::allocator<zmq::metadata_t *>>::_Deque_impl_data" = type { ptr, i64, %"struct.std::_Deque_iterator.64", %"struct.std::_Deque_iterator.64" }
%"struct.std::_Deque_iterator.64" = type { ptr, ptr, ptr, ptr }
%"class.std::deque.65" = type { %"class.std::_Deque_base.66" }
%"class.std::_Deque_base.66" = type { %"struct.std::_Deque_base<unsigned char, std::allocator<unsigned char>>::_Deque_impl" }
%"struct.std::_Deque_base<unsigned char, std::allocator<unsigned char>>::_Deque_impl" = type { %"struct.std::_Deque_base<unsigned char, std::allocator<unsigned char>>::_Deque_impl_data" }
%"struct.std::_Deque_base<unsigned char, std::allocator<unsigned char>>::_Deque_impl_data" = type { ptr, i64, %"struct.std::_Deque_iterator.67", %"struct.std::_Deque_iterator.67" }
%"struct.std::_Deque_iterator.67" = type { ptr, ptr, ptr, ptr }

; Function Attrs: mustprogress uwtable
define void @_ZN3zmq6xpub_t16xpipe_terminatedEPNS_6pipe_tE(ptr noundef nonnull align 8 dereferenceable(2360) %0, ptr noundef %1) unnamed_addr #0 align 2 {
  %3 = alloca ptr, align 8
  %4 = alloca ptr, align 8
  store ptr %0, ptr %3, align 8, !tbaa !3
  store ptr %1, ptr %4, align 8, !tbaa !149
  %5 = load ptr, ptr %3, align 8
  %6 = getelementptr inbounds nuw %"class.zmq::xpub_t", ptr %5, i32 0, i32 11
  %7 = load i8, ptr %6, align 1, !tbaa !127, !range !153, !noundef !154
  %8 = trunc i8 %7 to i1
  br i1 %8, label %9, label %21

9:                                                ; preds = %2
  %10 = getelementptr inbounds nuw %"class.zmq::xpub_t", ptr %5, i32 0, i32 2
  %11 = load ptr, ptr %4, align 8, !tbaa !149
  call void @_ZN3zmq15generic_mtrie_tINS_6pipe_tEE2rmIPNS_6xpub_tEEEvPS1_PFvPKhmT_ES9_b(ptr noundef nonnull align 8 dereferenceable(32) %10, ptr noundef %11, ptr noundef @_ZN3zmq6xpub_t19send_unsubscriptionEPKhmPS0_, ptr noundef %5, i1 noundef zeroext false)
  %12 = getelementptr inbounds nuw %"class.zmq::xpub_t", ptr %5, i32 0, i32 1
  %13 = load ptr, ptr %4, align 8, !tbaa !149
  call void @_ZN3zmq15generic_mtrie_tINS_6pipe_tEE2rmIPvEEvPS1_PFvPKhmT_ES8_b(ptr noundef nonnull align 8 dereferenceable(32) %12, ptr noundef %13, ptr noundef @_ZL4stubPKhmPv, ptr noundef null, i1 noundef zeroext false)
  %14 = load ptr, ptr %4, align 8, !tbaa !149
  %15 = getelementptr inbounds nuw %"class.zmq::xpub_t", ptr %5, i32 0, i32 13
  %16 = load ptr, ptr %15, align 8, !tbaa !129
  %17 = icmp eq ptr %14, %16
  br i1 %17, label %18, label %20

18:                                               ; preds = %9
  %19 = getelementptr inbounds nuw %"class.zmq::xpub_t", ptr %5, i32 0, i32 13
  store ptr null, ptr %19, align 8, !tbaa !129
  br label %20

20:                                               ; preds = %18, %9
  br label %28

21:                                               ; preds = %2
  %22 = getelementptr inbounds nuw %"class.zmq::xpub_t", ptr %5, i32 0, i32 1
  %23 = load ptr, ptr %4, align 8, !tbaa !149
  %24 = getelementptr inbounds nuw %"class.zmq::xpub_t", ptr %5, i32 0, i32 5
  %25 = load i8, ptr %24, align 1, !tbaa !121, !range !153, !noundef !154
  %26 = trunc i8 %25 to i1
  %27 = xor i1 %26, true
  call void @_ZN3zmq15generic_mtrie_tINS_6pipe_tEE2rmIPNS_6xpub_tEEEvPS1_PFvPKhmT_ES9_b(ptr noundef nonnull align 8 dereferenceable(32) %22, ptr noundef %23, ptr noundef @_ZN3zmq6xpub_t19send_unsubscriptionEPKhmPS0_, ptr noundef %5, i1 noundef zeroext %27)
  br label %28

28:                                               ; preds = %21, %20
  %29 = getelementptr inbounds nuw %"class.zmq::xpub_t", ptr %5, i32 0, i32 3
  %30 = load ptr, ptr %4, align 8, !tbaa !149
  call void @_ZN3zmq6dist_t15pipe_terminatedEPNS_6pipe_tE(ptr noundef nonnull align 8 dereferenceable(49) %29, ptr noundef %30)
  ret void
}