; Function Attrs: mustprogress uwtable
define void @_ZN3zmq6xpub_t16xpipe_terminatedEPNS_6pipe_tE(ptr noundef nonnull align 8 dereferenceable(2360) %0, ptr noundef %1) unnamed_addr #0 align 2 {
  %3 = getelementptr inbounds nuw i8, ptr %0, i64 1959
  %4 = load i8, ptr %3, align 1, !tbaa !117, !range !172, !noundef !173
  %5 = trunc nuw i8 %4 to i1
  br i1 %5, label %6, label %13

6:                                                ; preds = %2
  %7 = getelementptr inbounds nuw i8, ptr %0, i64 1864
  tail call void @_ZN3zmq15generic_mtrie_tINS_6pipe_tEE2rmIPNS_6xpub_tEEEvPS1_PFvPKhmT_ES9_b(ptr noundef nonnull align 8 dereferenceable(32) %7, ptr noundef %1, ptr noundef nonnull @_ZN3zmq6xpub_t19send_unsubscriptionEPKhmPS0_, ptr noundef nonnull %0, i1 noundef zeroext false)
  %8 = getelementptr inbounds nuw i8, ptr %0, i64 1832
  tail call void @_ZN3zmq15generic_mtrie_tINS_6pipe_tEE2rmIPvEEvPS1_PFvPKhmT_ES8_b(ptr noundef nonnull align 8 dereferenceable(32) %8, ptr noundef %1, ptr noundef nonnull @_ZL4stubPKhmPv, ptr noundef null, i1 noundef zeroext false)
  %9 = getelementptr inbounds nuw i8, ptr %0, i64 1968
  %10 = load ptr, ptr %9, align 8, !tbaa !119
  %11 = icmp eq ptr %1, %10
  br i1 %11, label %12, label %19

12:                                               ; preds = %6
  store ptr null, ptr %9, align 8, !tbaa !119
  br label %19

13:                                               ; preds = %2
  %14 = getelementptr inbounds nuw i8, ptr %0, i64 1832
  %15 = getelementptr inbounds nuw i8, ptr %0, i64 1953
  %16 = load i8, ptr %15, align 1, !tbaa !191, !range !172, !noundef !173
  %17 = trunc nuw i8 %16 to i1
  %18 = xor i1 %17, true
  tail call void @_ZN3zmq15generic_mtrie_tINS_6pipe_tEE2rmIPNS_6xpub_tEEEvPS1_PFvPKhmT_ES9_b(ptr noundef nonnull align 8 dereferenceable(32) %14, ptr noundef %1, ptr noundef nonnull @_ZN3zmq6xpub_t19send_unsubscriptionEPKhmPS0_, ptr noundef nonnull %0, i1 noundef zeroext %18)
  br label %19

19:                                               ; preds = %6, %12, %13
  %20 = getelementptr inbounds nuw i8, ptr %0, i64 1896
  tail call void @_ZN3zmq6dist_t15pipe_terminatedEPNS_6pipe_tE(ptr noundef nonnull align 8 dereferenceable(49) %20, ptr noundef %1)
  ret void
}